; ModuleID = 'bench/abseil-cpp/original/initialize.ll'
source_filename = "bench/abseil-cpp/original/initialize.ll"
target datalayout = "e-m:e-p270:32:32-p271:32:32-p272:64:64-i64:64-i128:128-f80:128-n8:16:32:64-S128"
target triple = "x86_64-pc-linux-gnu"

; Function Attrs: mustprogress uwtable
define dso_local void @_ZN4absl13InitializeLogEv() local_unnamed_addr #0 {
  %1 = tail call ptr @_ZN4absl13time_internal4cctz15local_time_zoneEv()
  tail call void @_ZN4absl12log_internal11SetTimeZoneENS_8TimeZoneE(ptr %1)
  tail call void @_ZN4absl12log_internal14SetInitializedEv()
  ret void
}

declare void @_ZN4absl12log_internal11SetTimeZoneENS_8TimeZoneE(ptr) local_unnamed_addr #1

declare void @_ZN4absl12log_internal14SetInitializedEv() local_unnamed_addr #1

declare ptr @_ZN4absl13time_internal4cctz15local_time_zoneEv() local_unnamed_addr #1


!llvm.module.flags = !{!0, !1, !2, !3}

!0 = !{i32 1, !"wchar_size", i32 4}
!1 = !{i32 8, !"PIC Level", i32 2}
!2 = !{i32 7, !"PIE Level", i32 2}
!3 = !{i32 7, !"uwtable", i32 2}
